target datalayout = "e-m:e-p270:32:32-p271:32:32-p272:64:64-i64:64-i128:128-f80:128-n8:16:32:64-S128"
target triple = "x86_64-pc-linux-gnu"

@.str = private unnamed_addr constant [9 x i8] c"pg_%u_%u\00", align 1
@.str.1 = private unnamed_addr constant [6 x i8] c"pg_%u\00", align 1

; Function Attrs: nounwind uwtable
define dso_local void @ReplicationOriginNameForLogicalRep(i32 noundef %0, i32 noundef %1, ptr noundef %2, i64 noundef %3) #0 {
  %5 = alloca i32, align 4
  %6 = alloca i32, align 4
  %7 = alloca ptr, align 8
  %8 = alloca i64, align 8
  store i32 %0, ptr %5, align 4
  store i32 %1, ptr %6, align 4
  store ptr %2, ptr %7, align 8
  store i64 %3, ptr %8, align 8
  %9 = load i32, ptr %6, align 4
  %10 = icmp ne i32 %9, 0
  br i1 %10, label %11, label %17

11:                                               ; preds = %4
  %12 = load ptr, ptr %7, align 8
  %13 = load i64, ptr %8, align 8
  %14 = load i32, ptr %5, align 4
  %15 = load i32, ptr %6, align 4
  %16 = call i32 (ptr, i64, ptr, ...) @pg_snprintf(ptr noundef %12, i64 noundef %13, ptr noundef @.str, i32 noundef %14, i32 noundef %15)
  br label %22

17:                                               ; preds = %4
  %18 = load ptr, ptr %7, align 8
  %19 = load i64, ptr %8, align 8
  %20 = load i32, ptr %5, align 4
  %21 = call i32 (ptr, i64, ptr, ...) @pg_snprintf(ptr noundef %18, i64 noundef %19, ptr noundef @.str.1, i32 noundef %20)
  br label %22

22:                                               ; preds = %17, %11
  ret void
}