; Function Attrs: nounwind uwtable
define dso_local void @ReplicationOriginNameForLogicalRep(i32 noundef %0, i32 noundef %1, ptr noundef %2, i64 noundef %3) local_unnamed_addr #0 {
  %.not = icmp eq i32 %1, 0
  br i1 %.not, label %7, label %5

5:                                                ; preds = %4
  %6 = tail call i32 (ptr, i64, ptr, ...) @pg_snprintf(ptr noundef %2, i64 noundef %3, ptr noundef nonnull @.str, i32 noundef %0, i32 noundef %1) #17
  br label %9

7:                                                ; preds = %4
  %8 = tail call i32 (ptr, i64, ptr, ...) @pg_snprintf(ptr noundef %2, i64 noundef %3, ptr noundef nonnull @.str.1, i32 noundef %0) #17
  br label %9

9:                                                ; preds = %7, %5
  ret void
}